; Function Attrs: nounwind sspstrong uwtable
define internal range(i64 1, 0) i64 @range_hash(i64 noundef %0) #0 {
  %2 = inttoptr i64 %0 to ptr
  %3 = load i64, ptr %2, align 8, !tbaa !11
  %4 = and i64 %3, 1040384
  %.not.i.i.i = icmp eq i64 %4, 0
  br i1 %.not.i.i.i, label %7, label %5

5:                                                ; preds = %1
  %6 = getelementptr inbounds nuw i8, ptr %2, i64 16
  br label %RANGE_EXCL.exit

7:                                                ; preds = %1
  %8 = getelementptr inbounds nuw i8, ptr %2, i64 24
  %9 = load ptr, ptr %8, align 8, !tbaa !13
  br label %RANGE_EXCL.exit

RANGE_EXCL.exit:                                  ; preds = %5, %7
  %.0.i.i.i = phi ptr [ %6, %5 ], [ %9, %7 ]
  %10 = getelementptr i8, ptr %.0.i.i.i, i64 16
  %11 = load i64, ptr %10, align 8, !tbaa !7
  %12 = and i64 %11, -5
  %13 = icmp ne i64 %12, 0
  %14 = zext i1 %13 to i64
  %15 = tail call i64 @rb_hash_start(i64 noundef %14) #13
  %16 = getelementptr inbounds nuw i8, ptr %2, i64 16
  %17 = load i64, ptr %16, align 8, !tbaa !13
  %18 = tail call i64 @rb_hash(i64 noundef %17) #13
  %19 = and i64 %18, 1
  %.not.i = icmp eq i64 %19, 0
  br i1 %.not.i, label %22, label %20

20:                                               ; preds = %RANGE_EXCL.exit
  %21 = ashr i64 %18, 1
  br label %rb_num2long_inline.exit

22:                                               ; preds = %RANGE_EXCL.exit
  %23 = tail call i64 @rb_num2long(i64 noundef %18) #13
  br label %rb_num2long_inline.exit

rb_num2long_inline.exit:                          ; preds = %20, %22
  %.0.i = phi i64 [ %21, %20 ], [ %23, %22 ]
  %24 = load i64, ptr %2, align 8, !tbaa !11
  %25 = and i64 %24, 1040384
  %.not.i.i.i12 = icmp eq i64 %25, 0
  br i1 %.not.i.i.i12, label %26, label %RANGE_END.exit

26:                                               ; preds = %rb_num2long_inline.exit
  %27 = getelementptr inbounds nuw i8, ptr %2, i64 24
  %28 = load ptr, ptr %27, align 8, !tbaa !13
  br label %RANGE_END.exit

RANGE_END.exit:                                   ; preds = %rb_num2long_inline.exit, %26
  %.0.i.i.i13 = phi ptr [ %28, %26 ], [ %16, %rb_num2long_inline.exit ]
  %29 = getelementptr i8, ptr %.0.i.i.i13, i64 8
  %30 = load i64, ptr %29, align 8, !tbaa !7
  %31 = tail call i64 @rb_hash(i64 noundef %30) #13
  %32 = and i64 %31, 1
  %.not.i14 = icmp eq i64 %32, 0
  br i1 %.not.i14, label %35, label %33

33:                                               ; preds = %RANGE_END.exit
  %34 = ashr i64 %31, 1
  br label %rb_num2long_inline.exit16

35:                                               ; preds = %RANGE_END.exit
  %36 = tail call i64 @rb_num2long(i64 noundef %31) #13
  br label %rb_num2long_inline.exit16

rb_num2long_inline.exit16:                        ; preds = %33, %35
  %.0.i15 = phi i64 [ %34, %33 ], [ %36, %35 ]
  %37 = load i64, ptr %2, align 8, !tbaa !11
  %38 = and i64 %37, 1040384
  %.not.i.i.i17 = icmp eq i64 %38, 0
  br i1 %.not.i.i.i17, label %39, label %RANGE_EXCL.exit19

39:                                               ; preds = %rb_num2long_inline.exit16
  %40 = getelementptr inbounds nuw i8, ptr %2, i64 24
  %41 = load ptr, ptr %40, align 8, !tbaa !13
  br label %RANGE_EXCL.exit19

RANGE_EXCL.exit19:                                ; preds = %rb_num2long_inline.exit16, %39
  %.0.i.i.i18 = phi ptr [ %41, %39 ], [ %16, %rb_num2long_inline.exit16 ]
  %42 = tail call i64 @rb_st_hash_uint(i64 noundef %15, i64 noundef %.0.i) #16
  %43 = tail call i64 @rb_st_hash_uint(i64 noundef %42, i64 noundef %.0.i15) #16
  %44 = getelementptr i8, ptr %.0.i.i.i18, i64 16
  %45 = load i64, ptr %44, align 8, !tbaa !7
  %46 = and i64 %45, -5
  %.not = icmp eq i64 %46, 0
  %47 = select i1 %.not, i64 0, i64 16777216
  %48 = tail call i64 @rb_st_hash_uint(i64 noundef %43, i64 noundef %47) #16
  %49 = tail call i64 @rb_st_hash_end(i64 noundef %48) #16
  %50 = and i64 %49, 4611686018427387903
  %51 = icmp slt i64 %49, 0
  %masksel.i = select i1 %51, i64 -4611686018427387904, i64 0
  %.0.i20 = or disjoint i64 %masksel.i, %50
  %52 = shl nsw i64 %.0.i20, 1
  %53 = or disjoint i64 %52, 1
  ret i64 %53
}